target datalayout = "e-m:e-p270:32:32-p271:32:32-p272:64:64-i64:64-i128:128-f80:128-n8:16:32:64-S128"
target triple = "x86_64-pc-linux-gnu"

%struct.prte_process_info_t = type { %struct.pmix_proc, %struct.pmix_proc, ptr, %struct.pmix_proc, i32, i32, i32, ptr, ptr, i32, i8, ptr, i16, ptr, ptr, i8, ptr, i8 }
%struct.pmix_proc = type { [256 x i8], i32 }
%struct.prte_ras_base_t = type { i8, ptr, i32, i32, i8, i8 }
%struct.prte_job_t = type { %struct.pmix_list_item_t, i32, ptr, ptr, [256 x i8], ptr, i32, i32, ptr, ptr, i32, i32, i32, i32, ptr, ptr, ptr, i32, i32, i32, i32, i32, i32, i32, %struct.pmix_proc, i32, i16, %struct.pmix_list_t, %struct.pmix_data_buffer, %struct.pmix_list_t, [256 x i8], i32, ptr, %struct.pmix_cli_result_t }
%struct.pmix_list_item_t = type { %struct.pmix_object_t, ptr, ptr, i32 }
%struct.pmix_object_t = type { %union.pthread_mutex_t, ptr, i32, %struct.pmix_tma }
%union.pthread_mutex_t = type { %struct.__pthread_mutex_s }
%struct.__pthread_mutex_s = type { i32, i32, i32, i32, i32, i16, i16, %struct.__pthread_internal_list }
%struct.__pthread_internal_list = type { ptr, ptr }
%struct.pmix_tma = type { ptr, ptr, ptr, ptr, ptr, ptr, ptr, ptr }
%struct.pmix_data_buffer = type { ptr, ptr, ptr, i64, i64 }
%struct.pmix_list_t = type { %struct.pmix_object_t, %struct.pmix_list_item_t, i64 }
%struct.pmix_cli_result_t = type { %struct.pmix_object_t, %struct.pmix_list_t, ptr }

@prte_process_info = external global %struct.prte_process_info_t, align 8
@prte_ras_base = external global %struct.prte_ras_base_t, align 8
@prte_finalizing = external global i8, align 1

; Function Attrs: nounwind uwtable
define void @prte_job_session_dir_finalize(ptr noundef %0) #0 {
  %2 = alloca ptr, align 8
  store ptr %0, ptr %2, align 8, !tbaa !10
  %3 = load i8, ptr getelementptr inbounds nuw (%struct.prte_process_info_t, ptr @prte_process_info, i32 0, i32 15), align 8, !tbaa !41, !range !15, !noundef !16
  %4 = trunc i8 %3 to i1
  br i1 %4, label %5, label %6

5:                                                ; preds = %1
  br label %57

6:                                                ; preds = %1
  %7 = load i8, ptr getelementptr inbounds nuw (%struct.prte_ras_base_t, ptr @prte_ras_base, i32 0, i32 4), align 8, !tbaa !42, !range !15, !noundef !16
  %8 = trunc i8 %7 to i1
  br i1 %8, label %9, label %18

9:                                                ; preds = %6
  %10 = load i8, ptr getelementptr inbounds nuw (%struct.prte_process_info_t, ptr @prte_process_info, i32 0, i32 10), align 4, !tbaa !45
  %11 = zext i8 %10 to i32
  %12 = and i32 2, %11
  %13 = icmp ne i32 %12, 0
  br i1 %13, label %14, label %18

14:                                               ; preds = %9
  %15 = load i32, ptr getelementptr inbounds nuw (%struct.pmix_proc, ptr @prte_process_info, i32 0, i32 1), align 8, !tbaa !46
  %16 = icmp eq i32 1, %15
  br i1 %16, label %17, label %18

17:                                               ; preds = %14
  br label %57

18:                                               ; preds = %14, %9, %6
  %19 = load ptr, ptr %2, align 8, !tbaa !10
  %20 = getelementptr inbounds nuw %struct.prte_job_t, ptr %19, i32 0, i32 5
  %21 = load ptr, ptr %20, align 8, !tbaa !17
  %22 = icmp eq ptr null, %21
  br i1 %22, label %23, label %24

23:                                               ; preds = %18
  br label %57

24:                                               ; preds = %18
  %25 = load ptr, ptr %2, align 8, !tbaa !10
  %26 = getelementptr inbounds nuw %struct.prte_job_t, ptr %25, i32 0, i32 4
  %27 = getelementptr inbounds [256 x i8], ptr %26, i64 0, i64 0
  %28 = call zeroext i1 @PMIx_Check_nspace(ptr noundef @prte_process_info, ptr noundef %27)
  br i1 %28, label %29, label %43

29:                                               ; preds = %24
  %30 = load i8, ptr @prte_finalizing, align 1, !tbaa !13, !range !15, !noundef !16
  %31 = trunc i8 %30 to i1
  br i1 %31, label %32, label %42

32:                                               ; preds = %29
  %33 = load ptr, ptr getelementptr inbounds nuw (%struct.prte_process_info_t, ptr @prte_process_info, i32 0, i32 14), align 8, !tbaa !34
  %34 = icmp ne ptr null, %33
  br i1 %34, label %35, label %41

35:                                               ; preds = %32
  %36 = load ptr, ptr getelementptr inbounds nuw (%struct.prte_process_info_t, ptr @prte_process_info, i32 0, i32 14), align 8, !tbaa !34
  %37 = call i32 @pmix_os_dirpath_destroy(ptr noundef %36, i1 noundef zeroext true, ptr noundef @_check_file)
  %38 = load ptr, ptr getelementptr inbounds nuw (%struct.prte_process_info_t, ptr @prte_process_info, i32 0, i32 14), align 8, !tbaa !34
  %39 = call i32 @rmdir(ptr noundef %38) #6
  %40 = load ptr, ptr getelementptr inbounds nuw (%struct.prte_process_info_t, ptr @prte_process_info, i32 0, i32 14), align 8, !tbaa !34
  call void @free(ptr noundef %40) #6
  store ptr null, ptr getelementptr inbounds nuw (%struct.prte_process_info_t, ptr @prte_process_info, i32 0, i32 14), align 8, !tbaa !34
  br label %41

41:                                               ; preds = %35, %32
  br label %42

42:                                               ; preds = %41, %29
  br label %57

43:                                               ; preds = %24
  %44 = load ptr, ptr %2, align 8, !tbaa !10
  %45 = getelementptr inbounds nuw %struct.prte_job_t, ptr %44, i32 0, i32 5
  %46 = load ptr, ptr %45, align 8, !tbaa !17
  %47 = call i32 @pmix_os_dirpath_destroy(ptr noundef %46, i1 noundef zeroext true, ptr noundef @_check_file)
  %48 = load ptr, ptr %2, align 8, !tbaa !10
  %49 = getelementptr inbounds nuw %struct.prte_job_t, ptr %48, i32 0, i32 5
  %50 = load ptr, ptr %49, align 8, !tbaa !17
  %51 = call i32 @rmdir(ptr noundef %50) #6
  %52 = load ptr, ptr %2, align 8, !tbaa !10
  %53 = getelementptr inbounds nuw %struct.prte_job_t, ptr %52, i32 0, i32 5
  %54 = load ptr, ptr %53, align 8, !tbaa !17
  call void @free(ptr noundef %54) #6
  %55 = load ptr, ptr %2, align 8, !tbaa !10
  %56 = getelementptr inbounds nuw %struct.prte_job_t, ptr %55, i32 0, i32 5
  store ptr null, ptr %56, align 8, !tbaa !17
  br label %57

57:                                               ; preds = %43, %42, %23, %17, %5
  ret void
}